target datalayout = "e-m:e-p270:32:32-p271:32:32-p272:64:64-i64:64-i128:128-f80:128-n8:16:32:64-S128"
target triple = "x86_64-pc-linux-gnu"

%struct.Vec_Int_t_ = type { i32, i32, ptr }

; Function Attrs: inlinehint nounwind uwtable
define internal void @Vec_IntFree(ptr noundef %0) #1 {
  %2 = alloca ptr, align 8
  store ptr %0, ptr %2, align 8, !tbaa !47
  %3 = load ptr, ptr %2, align 8, !tbaa !47
  %4 = getelementptr inbounds nuw %struct.Vec_Int_t_, ptr %3, i32 0, i32 2
  %5 = load ptr, ptr %4, align 8, !tbaa !50
  %6 = icmp ne ptr %5, null
  br i1 %6, label %7, label %13

7:                                                ; preds = %1
  %8 = load ptr, ptr %2, align 8, !tbaa !47
  %9 = getelementptr inbounds nuw %struct.Vec_Int_t_, ptr %8, i32 0, i32 2
  %10 = load ptr, ptr %9, align 8, !tbaa !50
  call void @free(ptr noundef %10) #15
  %11 = load ptr, ptr %2, align 8, !tbaa !47
  %12 = getelementptr inbounds nuw %struct.Vec_Int_t_, ptr %11, i32 0, i32 2
  store ptr null, ptr %12, align 8, !tbaa !50
  br label %14

13:                                               ; preds = %1
  br label %14

14:                                               ; preds = %13, %7
  %15 = load ptr, ptr %2, align 8, !tbaa !47
  %16 = icmp ne ptr %15, null
  br i1 %16, label %17, label %19

17:                                               ; preds = %14
  %18 = load ptr, ptr %2, align 8, !tbaa !47
  call void @free(ptr noundef %18) #15
  store ptr null, ptr %2, align 8, !tbaa !47
  br label %20

19:                                               ; preds = %14
  br label %20

20:                                               ; preds = %19, %17
  ret void
}

; Function Attrs: inlinehint nounwind uwtable
define internal i64 @Abc_Tt6Stretch(i64 noundef %0, i32 noundef %1) #1 {
  %3 = alloca i64, align 8
  %4 = alloca i32, align 4
  store i64 %0, ptr %3, align 8, !tbaa !116
  store i32 %1, ptr %4, align 4, !tbaa !27
  %5 = load i32, ptr %4, align 4, !tbaa !27
  %6 = icmp eq i32 %5, 0
  br i1 %6, label %7, label %16

7:                                                ; preds = %2
  %8 = load i32, ptr %4, align 4, !tbaa !27
  %9 = add nsw i32 %8, 1
  store i32 %9, ptr %4, align 4, !tbaa !27
  %10 = load i64, ptr %3, align 8, !tbaa !116
  %11 = and i64 %10, 1
  %12 = load i64, ptr %3, align 8, !tbaa !116
  %13 = and i64 %12, 1
  %14 = shl i64 %13, 1
  %15 = or i64 %11, %14
  store i64 %15, ptr %3, align 8, !tbaa !116
  br label %16

16:                                               ; preds = %7, %2
  %17 = load i32, ptr %4, align 4, !tbaa !27
  %18 = icmp eq i32 %17, 1
  br i1 %18, label %19, label %28

19:                                               ; preds = %16
  %20 = load i32, ptr %4, align 4, !tbaa !27
  %21 = add nsw i32 %20, 1
  store i32 %21, ptr %4, align 4, !tbaa !27
  %22 = load i64, ptr %3, align 8, !tbaa !116
  %23 = and i64 %22, 3
  %24 = load i64, ptr %3, align 8, !tbaa !116
  %25 = and i64 %24, 3
  %26 = shl i64 %25, 2
  %27 = or i64 %23, %26
  store i64 %27, ptr %3, align 8, !tbaa !116
  br label %28

28:                                               ; preds = %19, %16
  %29 = load i32, ptr %4, align 4, !tbaa !27
  %30 = icmp eq i32 %29, 2
  br i1 %30, label %31, label %40

31:                                               ; preds = %28
  %32 = load i32, ptr %4, align 4, !tbaa !27
  %33 = add nsw i32 %32, 1
  store i32 %33, ptr %4, align 4, !tbaa !27
  %34 = load i64, ptr %3, align 8, !tbaa !116
  %35 = and i64 %34, 15
  %36 = load i64, ptr %3, align 8, !tbaa !116
  %37 = and i64 %36, 15
  %38 = shl i64 %37, 4
  %39 = or i64 %35, %38
  store i64 %39, ptr %3, align 8, !tbaa !116
  br label %40

40:                                               ; preds = %31, %28
  %41 = load i32, ptr %4, align 4, !tbaa !27
  %42 = icmp eq i32 %41, 3
  br i1 %42, label %43, label %52

43:                                               ; preds = %40
  %44 = load i32, ptr %4, align 4, !tbaa !27
  %45 = add nsw i32 %44, 1
  store i32 %45, ptr %4, align 4, !tbaa !27
  %46 = load i64, ptr %3, align 8, !tbaa !116
  %47 = and i64 %46, 255
  %48 = load i64, ptr %3, align 8, !tbaa !116
  %49 = and i64 %48, 255
  %50 = shl i64 %49, 8
  %51 = or i64 %47, %50
  store i64 %51, ptr %3, align 8, !tbaa !116
  br label %52

52:                                               ; preds = %43, %40
  %53 = load i32, ptr %4, align 4, !tbaa !27
  %54 = icmp eq i32 %53, 4
  br i1 %54, label %55, label %64

55:                                               ; preds = %52
  %56 = load i32, ptr %4, align 4, !tbaa !27
  %57 = add nsw i32 %56, 1
  store i32 %57, ptr %4, align 4, !tbaa !27
  %58 = load i64, ptr %3, align 8, !tbaa !116
  %59 = and i64 %58, 65535
  %60 = load i64, ptr %3, align 8, !tbaa !116
  %61 = and i64 %60, 65535
  %62 = shl i64 %61, 16
  %63 = or i64 %59, %62
  store i64 %63, ptr %3, align 8, !tbaa !116
  br label %64

64:                                               ; preds = %55, %52
  %65 = load i32, ptr %4, align 4, !tbaa !27
  %66 = icmp eq i32 %65, 5
  br i1 %66, label %67, label %76

67:                                               ; preds = %64
  %68 = load i32, ptr %4, align 4, !tbaa !27
  %69 = add nsw i32 %68, 1
  store i32 %69, ptr %4, align 4, !tbaa !27
  %70 = load i64, ptr %3, align 8, !tbaa !116
  %71 = and i64 %70, 4294967295
  %72 = load i64, ptr %3, align 8, !tbaa !116
  %73 = and i64 %72, 4294967295
  %74 = shl i64 %73, 32
  %75 = or i64 %71, %74
  store i64 %75, ptr %3, align 8, !tbaa !116
  br label %76

76:                                               ; preds = %67, %64
  %77 = load i64, ptr %3, align 8, !tbaa !116
  ret i64 %77
}

; Function Attrs: nounwind uwtable
define void @If_DsdManTest() #0 {
  %1 = alloca ptr, align 8
  %2 = alloca i64, align 8
  call void @llvm.lifetime.start.p0(i64 8, ptr %1) #15
  call void @llvm.lifetime.start.p0(i64 8, ptr %2) #15
  store i64 21111, ptr %2, align 8, !tbaa !116
  %3 = load i64, ptr %2, align 8, !tbaa !116
  %4 = call i64 @Abc_Tt6Stretch(i64 noundef %3, i32 noundef 4)
  store i64 %4, ptr %2, align 8, !tbaa !116
  %5 = call ptr @Dau_DecFindSets(ptr noundef %2, i32 noundef 6)
  store ptr %5, ptr %1, align 8, !tbaa !47
  %6 = load ptr, ptr %1, align 8, !tbaa !47
  call void @Vec_IntFree(ptr noundef %6)
  call void @llvm.lifetime.end.p0(i64 8, ptr %2) #15
  call void @llvm.lifetime.end.p0(i64 8, ptr %1) #15
  ret void
}