; Function Attrs: nounwind uwtable
define void @If_DsdManTest() local_unnamed_addr #4 {
  %1 = alloca i64, align 8
  call void @llvm.lifetime.start.p0(i64 8, ptr nonnull %1) #39
  store i64 5942308905776796279, ptr %1, align 8, !tbaa !51
  %2 = call ptr @Dau_DecFindSets(ptr noundef nonnull %1, i32 noundef 6) #39
  %3 = getelementptr inbounds nuw i8, ptr %2, i64 8
  %4 = load ptr, ptr %3, align 8, !tbaa !39
  %.not.i = icmp eq ptr %4, null
  br i1 %.not.i, label %Vec_IntFree.exit, label %5

5:                                                ; preds = %0
  call void @free(ptr noundef nonnull %4) #39
  br label %Vec_IntFree.exit

Vec_IntFree.exit:                                 ; preds = %0, %5
  call void @free(ptr noundef nonnull %2) #39
  call void @llvm.lifetime.end.p0(i64 8, ptr nonnull %1) #39
  ret void
}